; Function Attrs: mustprogress nounwind uwtable
define hidden noundef i64 @_ZNK15G1CollectedHeap13tlab_capacityEP6Thread(ptr noundef nonnull align 8 dereferenceable(1488) %0, ptr nocapture readnone %1) unnamed_addr #0 align 2 {
  %3 = getelementptr inbounds i8, ptr %0, i64 1064
  %4 = load ptr, ptr %3, align 8
  %5 = getelementptr inbounds i8, ptr %4, i64 108
  %6 = load volatile i32, ptr %5, align 4
  %7 = getelementptr inbounds i8, ptr %0, i64 1016
  %8 = tail call noundef i32 @_ZNK17G1SurvivorRegions6lengthEv(ptr noundef nonnull align 8 dereferenceable(32) %7) #23
  %9 = sub i32 %6, %8
  %10 = zext i32 %9 to i64
  %11 = load i64, ptr @_ZN12G1HeapRegion10GrainBytesE, align 8
  %12 = mul i64 %11, %10
  ret i64 %12
}